; Function Attrs: nofree norecurse nosync nounwind memory(argmem: readwrite) uwtable
define internal void @pred_planar_3_8(ptr noundef writeonly captures(none) %0, ptr noundef readonly captures(none) %1, ptr noundef readonly captures(none) %2, i64 noundef %3) #2 {
  %5 = getelementptr inbounds nuw i8, ptr %1, i64 32
  %6 = getelementptr inbounds nuw i8, ptr %2, i64 32
  br label %.preheader

.preheader:                                       ; preds = %4, %37
  %indvars.iv6 = phi i64 [ 0, %4 ], [ %indvars.iv.next7, %37 ]
  %7 = getelementptr inbounds nuw i8, ptr %2, i64 %indvars.iv6
  %indvars.iv.next7 = add nuw nsw i64 %indvars.iv6, 1
  %8 = mul nsw i64 %3, %indvars.iv6
  %9 = getelementptr i8, ptr %0, i64 %8
  %10 = trunc i64 %indvars.iv6 to i16
  %11 = sub i16 31, %10
  %12 = trunc i64 %indvars.iv.next7 to i16
  br label %13

13:                                               ; preds = %.preheader, %13
  %indvars.iv = phi i64 [ 0, %.preheader ], [ %indvars.iv.next, %13 ]
  %14 = load i8, ptr %7, align 1, !tbaa !97
  %15 = zext i8 %14 to i16
  %16 = trunc i64 %indvars.iv to i16
  %17 = sub i16 31, %16
  %18 = mul i16 %17, %15
  %indvars.iv.next = add nuw nsw i64 %indvars.iv, 1
  %19 = load i8, ptr %5, align 1, !tbaa !97
  %20 = zext i8 %19 to i16
  %21 = trunc i64 %indvars.iv.next to i16
  %22 = mul i16 %21, %20
  %23 = getelementptr inbounds nuw i8, ptr %1, i64 %indvars.iv
  %24 = load i8, ptr %23, align 1, !tbaa !97
  %25 = zext i8 %24 to i16
  %26 = mul i16 %11, %25
  %27 = load i8, ptr %6, align 1, !tbaa !97
  %28 = zext i8 %27 to i16
  %29 = mul i16 %12, %28
  %30 = add i16 %18, 32
  %31 = add i16 %30, %22
  %32 = add i16 %31, %26
  %33 = add i16 %32, %29
  %34 = lshr i16 %33, 6
  %35 = trunc i16 %34 to i8
  %36 = getelementptr i8, ptr %9, i64 %indvars.iv
  store i8 %35, ptr %36, align 1, !tbaa !97
  %exitcond.not = icmp eq i64 %indvars.iv.next, 32
  br i1 %exitcond.not, label %37, label %13, !llvm.loop !306

37:                                               ; preds = %13
  %exitcond9.not = icmp eq i64 %indvars.iv.next7, 32
  br i1 %exitcond9.not, label %pred_planar_8.exit, label %.preheader, !llvm.loop !307

pred_planar_8.exit:                               ; preds = %37
  ret void
}